; Function Attrs: mustprogress nounwind uwtable
define internal void @"_ZN4node13CallbackQueueIvJPNS_11EnvironmentEEE12CallbackImplIZNS_12shadow_realm11ShadowRealm12WeakCallbackERKN2v816WeakCallbackInfoIS6_EEE3$_0E4CallES2_"(ptr nocapture noundef nonnull readonly align 8 dereferenceable(32) %this, ptr nocapture readnone %args) unnamed_addr #3 align 2 {
entry:
  %callback_ = getelementptr inbounds i8, ptr %this, i64 24
  %callback_.val = load ptr, ptr %callback_, align 8
  %isnull.i = icmp eq ptr %callback_.val, null
  br i1 %isnull.i, label %"_ZZN4node12shadow_realm11ShadowRealm12WeakCallbackERKN2v816WeakCallbackInfoIS1_EEENK3$_0clEPNS_11EnvironmentE.exit", label %delete.notnull.i

delete.notnull.i:                                 ; preds = %entry
  %vtable.i = load ptr, ptr %callback_.val, align 8
  %vfn.i = getelementptr inbounds i8, ptr %vtable.i, i64 8
  %0 = load ptr, ptr %vfn.i, align 8
  tail call void %0(ptr noundef nonnull align 8 dereferenceable(872) %callback_.val) #13
  br label %"_ZZN4node12shadow_realm11ShadowRealm12WeakCallbackERKN2v816WeakCallbackInfoIS1_EEENK3$_0clEPNS_11EnvironmentE.exit"

"_ZZN4node12shadow_realm11ShadowRealm12WeakCallbackERKN2v816WeakCallbackInfoIS1_EEENK3$_0clEPNS_11EnvironmentE.exit": ; preds = %entry, %delete.notnull.i
  ret void
}